target datalayout = "e-m:e-p270:32:32-p271:32:32-p272:64:64-i64:64-i128:128-f80:128-n8:16:32:64-S128"
target triple = "x86_64-pc-linux-gnu"

%struct._zval_struct = type { %union._zend_value, %union.anon.3, %union.anon.6 }
%union._zend_value = type { i64 }
%union.anon.3 = type { i32 }
%union.anon.6 = type { i32 }
%struct.php_dom_xpath_callbacks = type { ptr, ptr, ptr }
%struct._xmlXPathObject = type { i32, ptr, i32, double, ptr, ptr, i32, ptr, i32 }

@.str = private unnamed_addr constant [1 x i8] zeroinitializer, align 1
@.str.1 = private unnamed_addr constant [51 x i8] c"Function name must be passed as the first argument\00", align 1
@.str.2 = private unnamed_addr constant [30 x i8] c"Handler name must be a string\00", align 1

; Function Attrs: nounwind uwtable
define internal void @php_dom_xpath_callback_cleanup_args(ptr noundef %0, i32 noundef %1) #0 {
  %3 = alloca ptr, align 8
  %4 = alloca i32, align 4
  %5 = alloca i32, align 4
  store ptr %0, ptr %3, align 8
  store i32 %1, ptr %4, align 4
  %6 = load ptr, ptr %3, align 8
  %7 = icmp ne ptr %6, null
  br i1 %7, label %8, label %23

8:                                                ; preds = %2
  store i32 0, ptr %5, align 4
  br label %9

9:                                                ; preds = %18, %8
  %10 = load i32, ptr %5, align 4
  %11 = load i32, ptr %4, align 4
  %12 = icmp ult i32 %10, %11
  br i1 %12, label %13, label %21

13:                                               ; preds = %9
  %14 = load ptr, ptr %3, align 8
  %15 = load i32, ptr %5, align 4
  %16 = zext i32 %15 to i64
  %17 = getelementptr inbounds %struct._zval_struct, ptr %14, i64 %16
  call void @zval_ptr_dtor(ptr noundef %17)
  br label %18

18:                                               ; preds = %13
  %19 = load i32, ptr %5, align 4
  %20 = add i32 %19, 1
  store i32 %20, ptr %5, align 4
  br label %9

21:                                               ; preds = %9
  %22 = load ptr, ptr %3, align 8
  call void @_efree(ptr noundef %22)
  br label %23

23:                                               ; preds = %21, %2
  ret void
}

; Function Attrs: nounwind uwtable
define i32 @php_dom_xpath_callbacks_call_php_ns(ptr noundef %0, ptr noundef %1, i32 noundef %2, i32 noundef %3, ptr noundef %4, ptr noundef %5) #0 {
  %7 = alloca ptr, align 8
  %8 = alloca ptr, align 8
  %9 = alloca i32, align 4
  %10 = alloca i32, align 4
  %11 = alloca ptr, align 8
  %12 = alloca ptr, align 8
  %13 = alloca i32, align 4
  %14 = alloca i32, align 4
  %15 = alloca ptr, align 8
  %16 = alloca ptr, align 8
  %17 = alloca ptr, align 8
  %18 = alloca i64, align 8
  store ptr %0, ptr %7, align 8
  store ptr %1, ptr %8, align 8
  store i32 %2, ptr %9, align 4
  store i32 %3, ptr %10, align 4
  store ptr %4, ptr %11, align 8
  store ptr %5, ptr %12, align 8
  store i32 -1, ptr %13, align 4
  %19 = load i32, ptr %9, align 4
  %20 = icmp eq i32 %19, 0
  %21 = xor i1 %20, true
  %22 = xor i1 %21, true
  %23 = zext i1 %22 to i32
  %24 = sext i32 %23 to i64
  %25 = icmp ne i64 %24, 0
  br i1 %25, label %26, label %27

26:                                               ; preds = %6
  call void (ptr, ptr, ...) @zend_throw_error(ptr noundef null, ptr noundef @.str.1)
  br label %68

27:                                               ; preds = %6
  %28 = load i32, ptr %9, align 4
  %29 = sub nsw i32 %28, 1
  store i32 %29, ptr %14, align 4
  %30 = load ptr, ptr %8, align 8
  %31 = load i32, ptr %14, align 4
  %32 = load i32, ptr %10, align 4
  %33 = load ptr, ptr %11, align 8
  %34 = load ptr, ptr %12, align 8
  %35 = call ptr @php_dom_xpath_callback_fetch_args(ptr noundef %30, i32 noundef %31, i32 noundef %32, ptr noundef %33, ptr noundef %34)
  store ptr %35, ptr %15, align 8
  %36 = load ptr, ptr %8, align 8
  %37 = call ptr @valuePop(ptr noundef %36)
  store ptr %37, ptr %16, align 8
  %38 = load ptr, ptr %16, align 8
  %39 = getelementptr inbounds %struct._xmlXPathObject, ptr %38, i32 0, i32 4
  %40 = load ptr, ptr %39, align 8
  %41 = icmp eq ptr %40, null
  %42 = xor i1 %41, true
  %43 = xor i1 %42, true
  %44 = zext i1 %43 to i32
  %45 = sext i32 %44 to i64
  %46 = icmp ne i64 %45, 0
  br i1 %46, label %47, label %48

47:                                               ; preds = %27
  call void (ptr, ...) @zend_type_error(ptr noundef @.str.2)
  br label %64

48:                                               ; preds = %27
  %49 = load ptr, ptr %16, align 8
  %50 = getelementptr inbounds %struct._xmlXPathObject, ptr %49, i32 0, i32 4
  %51 = load ptr, ptr %50, align 8
  store ptr %51, ptr %17, align 8
  %52 = load ptr, ptr %17, align 8
  %53 = call i64 @strlen(ptr noundef %52) #9
  store i64 %53, ptr %18, align 8
  %54 = load ptr, ptr %7, align 8
  %55 = load ptr, ptr %7, align 8
  %56 = getelementptr inbounds %struct.php_dom_xpath_callbacks, ptr %55, i32 0, i32 0
  %57 = load ptr, ptr %56, align 8
  %58 = load ptr, ptr %8, align 8
  %59 = load ptr, ptr %15, align 8
  %60 = load i32, ptr %14, align 4
  %61 = load ptr, ptr %17, align 8
  %62 = load i64, ptr %18, align 8
  %63 = call i32 @php_dom_xpath_callback_dispatch(ptr noundef %54, ptr noundef %57, ptr noundef %58, ptr noundef %59, i32 noundef %60, ptr noundef %61, i64 noundef %62)
  store i32 %63, ptr %13, align 4
  br label %64

64:                                               ; preds = %48, %47
  %65 = load ptr, ptr %16, align 8
  call void @xmlXPathFreeObject(ptr noundef %65)
  %66 = load ptr, ptr %15, align 8
  %67 = load i32, ptr %14, align 4
  call void @php_dom_xpath_callback_cleanup_args(ptr noundef %66, i32 noundef %67)
  br label %68

68:                                               ; preds = %64, %26
  %69 = load i32, ptr %13, align 4
  %70 = icmp ne i32 %69, 0
  %71 = xor i1 %70, true
  %72 = xor i1 %71, true
  %73 = zext i1 %72 to i32
  %74 = sext i32 %73 to i64
  %75 = icmp ne i64 %74, 0
  br i1 %75, label %76, label %80

76:                                               ; preds = %68
  %77 = load ptr, ptr %8, align 8
  %78 = call ptr @xmlXPathNewString(ptr noundef @.str)
  %79 = call i32 @valuePush(ptr noundef %77, ptr noundef %78)
  br label %80

80:                                               ; preds = %76, %68
  %81 = load i32, ptr %13, align 4
  ret i32 %81
}