; Function Attrs: nounwind uwtable
define noundef i32 @php_dom_xpath_callbacks_call_php_ns(ptr nocapture noundef %0, ptr noundef %1, i32 noundef %2, i32 noundef %3, ptr noundef %4, ptr nocapture noundef readonly %5) local_unnamed_addr #0 {
  %7 = icmp eq i32 %2, 0
  br i1 %7, label %php_dom_xpath_callback_cleanup_args.exit.thread, label %8

php_dom_xpath_callback_cleanup_args.exit.thread:  ; preds = %6
  tail call void (ptr, ptr, ...) @zend_throw_error(ptr noundef null, ptr noundef nonnull @.str.1) #9
  br label %22

8:                                                ; preds = %6
  %9 = add nsw i32 %2, -1
  %10 = tail call fastcc ptr @php_dom_xpath_callback_fetch_args(ptr noundef %1, i32 noundef %9, i32 noundef %3, ptr noundef %4, ptr noundef %5)
  %11 = tail call ptr @valuePop(ptr noundef %1) #9
  %12 = getelementptr inbounds i8, ptr %11, i64 32
  %13 = load ptr, ptr %12, align 8
  %14 = icmp eq ptr %13, null
  br i1 %14, label %15, label %16

15:                                               ; preds = %8
  tail call void (ptr, ...) @zend_type_error(ptr noundef nonnull @.str.2) #9
  br label %20

16:                                               ; preds = %8
  %17 = tail call i64 @strlen(ptr noundef nonnull dereferenceable(1) %13) #10
  %18 = load ptr, ptr %0, align 8
  %19 = tail call fastcc i32 @php_dom_xpath_callback_dispatch(ptr noundef nonnull %0, ptr noundef %18, ptr noundef %1, ptr noundef %10, i32 noundef %9, ptr noundef nonnull %13, i64 noundef %17), !range !5
  br label %20

20:                                               ; preds = %16, %15
  %.0 = phi i32 [ -1, %15 ], [ %19, %16 ]
  tail call void @xmlXPathFreeObject(ptr noundef nonnull %11) #9
  %.not.i = icmp eq ptr %10, null
  br i1 %.not.i, label %php_dom_xpath_callback_cleanup_args.exit, label %.preheader.i

.preheader.i:                                     ; preds = %20
  %.not8.i = icmp eq i32 %9, 0
  br i1 %.not8.i, label %._crit_edge.i, label %.lr.ph.preheader.i

.lr.ph.preheader.i:                               ; preds = %.preheader.i
  %wide.trip.count.i = zext i32 %9 to i64
  br label %.lr.ph.i

.lr.ph.i:                                         ; preds = %.lr.ph.i, %.lr.ph.preheader.i
  %indvars.iv.i = phi i64 [ 0, %.lr.ph.preheader.i ], [ %indvars.iv.next.i, %.lr.ph.i ]
  %21 = getelementptr inbounds %struct._zval_struct, ptr %10, i64 %indvars.iv.i
  tail call void @zval_ptr_dtor(ptr noundef nonnull %21) #9
  %indvars.iv.next.i = add nuw nsw i64 %indvars.iv.i, 1
  %exitcond.not.i = icmp eq i64 %indvars.iv.next.i, %wide.trip.count.i
  br i1 %exitcond.not.i, label %._crit_edge.i, label %.lr.ph.i

._crit_edge.i:                                    ; preds = %.lr.ph.i, %.preheader.i
  tail call void @_efree(ptr noundef nonnull %10) #9
  br label %php_dom_xpath_callback_cleanup_args.exit

php_dom_xpath_callback_cleanup_args.exit:         ; preds = %._crit_edge.i, %20
  %.not = icmp eq i32 %.0, 0
  br i1 %.not, label %25, label %22

22:                                               ; preds = %php_dom_xpath_callback_cleanup_args.exit.thread, %php_dom_xpath_callback_cleanup_args.exit
  %.127 = phi i32 [ -1, %php_dom_xpath_callback_cleanup_args.exit.thread ], [ %.0, %php_dom_xpath_callback_cleanup_args.exit ]
  %23 = tail call ptr @xmlXPathNewString(ptr noundef nonnull @.str) #9
  %24 = tail call i32 @valuePush(ptr noundef %1, ptr noundef %23) #9
  br label %25

25:                                               ; preds = %22, %php_dom_xpath_callback_cleanup_args.exit
  %.128 = phi i32 [ %.127, %22 ], [ 0, %php_dom_xpath_callback_cleanup_args.exit ]
  ret i32 %.128
}